; Function Attrs: mustprogress uwtable
define dso_local void @_ZN5cmsys20CommandLineArguments16PopulateVariableEPPcRKNSt7__cxx1112basic_stringIcSt11char_traitsIcESaIcEEE(ptr noundef nonnull readnone align 8 captures(none) dereferenceable(45) %0, ptr noundef captures(none) %1, ptr noundef nonnull readonly align 8 captures(none) dereferenceable(32) %2) local_unnamed_addr #3 align 2 personality ptr @__gxx_personality_v0 {
  %4 = load ptr, ptr %1, align 8, !tbaa !49
  %5 = icmp eq ptr %4, null
  br i1 %5, label %7, label %6

6:                                                ; preds = %3
  tail call void @_ZdaPv(ptr noundef nonnull %4) #28
  br label %7

7:                                                ; preds = %6, %3
  %8 = getelementptr inbounds nuw i8, ptr %2, i64 8
  %9 = load i64, ptr %8, align 8, !tbaa !10
  %10 = add i64 %9, 1
  %11 = tail call noalias noundef nonnull ptr @_Znam(i64 noundef %10) #27
  store ptr %11, ptr %1, align 8, !tbaa !49
  %12 = load ptr, ptr %2, align 8, !tbaa !29
  %13 = tail call ptr @strcpy(ptr noundef nonnull dereferenceable(1) %11, ptr noundef nonnull dereferenceable(1) %12) #29
  ret void
}